target datalayout = "e-m:e-p270:32:32-p271:32:32-p272:64:64-i64:64-i128:128-f80:128-n8:16:32:64-S128"
target triple = "x86_64-unknown-linux-gnu"

; Function Attrs: mustprogress nounwind uwtable
define void @aiFreeScene(ptr noundef %pIn) #0 {
entry:
  %pIn.addr = alloca ptr, align 8
  store ptr %pIn, ptr %pIn.addr, align 8
  %0 = load ptr, ptr %pIn.addr, align 8
  %isnull = icmp eq ptr %0, null
  br i1 %isnull, label %delete.end, label %delete.notnull

delete.notnull:                                   ; preds = %entry
  call void @_ZN7aiSceneD1Ev(ptr noundef nonnull align 8 dereferenceable(1168) %0) #13
  call void @_ZdlPv(ptr noundef %0) #16
  br label %delete.end

delete.end:                                       ; preds = %delete.notnull, %entry
  ret void
}