; Function Attrs: mustprogress nounwind uwtable
define void @aiFreeScene(ptr noundef %pIn) local_unnamed_addr #7 {
entry:
  %isnull = icmp eq ptr %pIn, null
  br i1 %isnull, label %delete.end, label %delete.notnull

delete.notnull:                                   ; preds = %entry
  tail call void @_ZN7aiSceneD1Ev(ptr noundef nonnull align 8 dereferenceable(1168) %pIn) #10
  tail call void @_ZdlPv(ptr noundef nonnull %pIn) #13
  br label %delete.end

delete.end:                                       ; preds = %delete.notnull, %entry
  ret void
}